; Function Attrs: mustprogress nofree norecurse nosync nounwind willreturn memory(argmem: readwrite) uwtable
define void @_ZN6colvar8distance24calc_Jacobian_derivativeEv(ptr noundef nonnull align 8 captures(none) dereferenceable(1648) initializes((1104, 1112)) %0) unnamed_addr #3 align 2 {
  %2 = getelementptr inbounds nuw i8, ptr %0, i64 600
  %3 = load double, ptr %2, align 8, !tbaa !98
  %4 = fcmp une double %3, 0.000000e+00
  %5 = fdiv double 2.000000e+00, %3
  %6 = select i1 %4, double %5, double 0.000000e+00
  %7 = getelementptr inbounds nuw i8, ptr %0, i64 1104
  store double %6, ptr %7, align 8, !tbaa !115
  ret void
}